; Function Attrs: mustprogress nofree norecurse nosync nounwind memory(argmem: readwrite) uwtable
define internal void @_ZN2cv4gapi12_GLOBAL__N_118fillConstBorderRowIfEEvPhiiiNS_7Scalar_IdEE(ptr noundef writeonly captures(none) %0, i32 noundef %1, i32 noundef %2, i32 noundef %3, ptr noundef readonly captures(none) %4) unnamed_addr #19 {
  %6 = sub nsw i32 %1, %3
  %7 = mul nsw i32 %6, %2
  %8 = sext i32 %7 to i64
  %9 = getelementptr inbounds float, ptr %0, i64 %8
  %10 = icmp sgt i32 %3, 0
  %11 = icmp sgt i32 %2, 0
  %or.cond = and i1 %10, %11
  br i1 %or.cond, label %.preheader.us.preheader, label %._crit_edge24

.preheader.us.preheader:                          ; preds = %5
  %12 = zext nneg i32 %2 to i64
  %wide.trip.count30 = zext nneg i32 %3 to i64
  br label %.preheader.us

.preheader.us:                                    ; preds = %.preheader.us.preheader, %._crit_edge.us
  %indvars.iv27 = phi i64 [ 0, %.preheader.us.preheader ], [ %indvars.iv.next28, %._crit_edge.us ]
  %13 = mul nuw nsw i64 %indvars.iv27, %12
  br label %14

14:                                               ; preds = %.preheader.us, %14
  %indvars.iv = phi i64 [ 0, %.preheader.us ], [ %indvars.iv.next, %14 ]
  %15 = getelementptr inbounds nuw [4 x double], ptr %4, i64 0, i64 %indvars.iv
  %16 = load double, ptr %15, align 8, !tbaa !11
  %17 = fptrunc double %16 to float
  %18 = add nuw nsw i64 %indvars.iv, %13
  %19 = getelementptr inbounds nuw float, ptr %0, i64 %18
  store float %17, ptr %19, align 4, !tbaa !213
  %20 = getelementptr inbounds nuw float, ptr %9, i64 %18
  store float %17, ptr %20, align 4, !tbaa !213
  %indvars.iv.next = add nuw nsw i64 %indvars.iv, 1
  %exitcond.not = icmp eq i64 %indvars.iv.next, %12
  br i1 %exitcond.not, label %._crit_edge.us, label %14, !llvm.loop !215

._crit_edge.us:                                   ; preds = %14
  %indvars.iv.next28 = add nuw nsw i64 %indvars.iv27, 1
  %exitcond31.not = icmp eq i64 %indvars.iv.next28, %wide.trip.count30
  br i1 %exitcond31.not, label %._crit_edge24, label %.preheader.us, !llvm.loop !216

._crit_edge24:                                    ; preds = %._crit_edge.us, %5
  ret void
}